; ModuleID = '56/1747.c'
source_filename = "56/1747.c"
target datalayout = "e-m:e-p270:32:32-p271:32:32-p272:64:64-i64:64-f80:128-n8:16:32:64-S128"
target triple = "x86_64-pc-linux-gnu"

@.str = private unnamed_addr constant [3 x i8] c"%d\00", align 1
@.str.1 = private unnamed_addr constant [4 x i8] c"%d\0A\00", align 1

; Function Attrs: noinline nounwind uwtable
define dso_local void @main() #0 {
  %1 = alloca i32, align 4
  %2 = alloca i32, align 4
  %3 = alloca i32, align 4
  %4 = alloca i32, align 4
  %5 = alloca i32, align 4
  %6 = alloca i32, align 4
  %7 = alloca i32, align 4
  %8 = call i32 (i8*, ...) @__isoc99_scanf(i8* getelementptr inbounds ([3 x i8], [3 x i8]* @.str, i64 0, i64 0), i32* %1)
  %9 = load i32, i32* %1, align 4
  %10 = sdiv i32 %9, 10000
  store i32 %10, i32* %2, align 4
  %11 = load i32, i32* %1, align 4
  %12 = load i32, i32* %2, align 4
  %13 = mul nsw i32 10000, %12
  %14 = sub nsw i32 %11, %13
  %15 = sdiv i32 %14, 1000
  store i32 %15, i32* %3, align 4
  %16 = load i32, i32* %1, align 4
  %17 = load i32, i32* %2, align 4
  %18 = mul nsw i32 10000, %17
  %19 = sub nsw i32 %16, %18
  %20 = load i32, i32* %3, align 4
  %21 = mul nsw i32 1000, %20
  %22 = sub nsw i32 %19, %21
  %23 = sdiv i32 %22, 100
  store i32 %23, i32* %4, align 4
  %24 = load i32, i32* %1, align 4
  %25 = load i32, i32* %2, align 4
  %26 = mul nsw i32 10000, %25
  %27 = sub nsw i32 %24, %26
  %28 = load i32, i32* %3, align 4
  %29 = mul nsw i32 1000, %28
  %30 = sub nsw i32 %27, %29
  %31 = load i32, i32* %4, align 4
  %32 = mul nsw i32 100, %31
  %33 = sub nsw i32 %30, %32
  %34 = sdiv i32 %33, 10
  store i32 %34, i32* %5, align 4
  %35 = load i32, i32* %1, align 4
  %36 = srem i32 %35, 10
  store i32 %36, i32* %6, align 4
  %37 = load i32, i32* %6, align 4
  %38 = mul nsw i32 10000, %37
  %39 = load i32, i32* %5, align 4
  %40 = mul nsw i32 1000, %39
  %41 = add nsw i32 %38, %40
  %42 = load i32, i32* %4, align 4
  %43 = mul nsw i32 100, %42
  %44 = add nsw i32 %41, %43
  %45 = load i32, i32* %3, align 4
  %46 = mul nsw i32 10, %45
  %47 = add nsw i32 %44, %46
  %48 = load i32, i32* %2, align 4
  %49 = add nsw i32 %47, %48
  store i32 %49, i32* %7, align 4
  %50 = load i32, i32* %7, align 4
  %51 = srem i32 %50, 10000
  %52 = icmp eq i32 %51, 0
  br i1 %52, label %53, label %56

53:                                               ; preds = %0
  %54 = load i32, i32* %7, align 4
  %55 = sdiv i32 %54, 10000
  store i32 %55, i32* %7, align 4
  br label %80

56:                                               ; preds = %0
  %57 = load i32, i32* %7, align 4
  %58 = srem i32 %57, 1000
  %59 = icmp eq i32 %58, 0
  br i1 %59, label %60, label %63

60:                                               ; preds = %56
  %61 = load i32, i32* %7, align 4
  %62 = sdiv i32 %61, 1000
  store i32 %62, i32* %7, align 4
  br label %79

63:                                               ; preds = %56
  %64 = load i32, i32* %7, align 4
  %65 = srem i32 %64, 100
  %66 = icmp eq i32 %65, 0
  br i1 %66, label %67, label %70

67:                                               ; preds = %63
  %68 = load i32, i32* %7, align 4
  %69 = sdiv i32 %68, 100
  store i32 %69, i32* %7, align 4
  br label %78

70:                                               ; preds = %63
  %71 = load i32, i32* %7, align 4
  %72 = srem i32 %71, 10
  %73 = icmp eq i32 %72, 0
  br i1 %73, label %74, label %77

74:                                               ; preds = %70
  %75 = load i32, i32* %7, align 4
  %76 = sdiv i32 %75, 10
  store i32 %76, i32* %7, align 4
  br label %77

77:                                               ; preds = %74, %70
  br label %78

78:                                               ; preds = %77, %67
  br label %79

79:                                               ; preds = %78, %60
  br label %80

80:                                               ; preds = %79, %53
  %81 = load i32, i32* %7, align 4
  %82 = call i32 (i8*, ...) @printf(i8* getelementptr inbounds ([4 x i8], [4 x i8]* @.str.1, i64 0, i64 0), i32 %81)
  ret void
}

declare dso_local i32 @__isoc99_scanf(i8*, ...) #1

declare dso_local i32 @printf(i8*, ...) #1


!llvm.module.flags = !{!0}
!llvm.ident = !{!1}

!0 = !{i32 1, !"wchar_size", i32 4}
!1 = !{!"clang version 10.0.0-4ubuntu1 "}
